target datalayout = "e-m:e-p270:32:32-p271:32:32-p272:64:64-i64:64-i128:128-f80:128-n8:16:32:64-S128"
target triple = "x86_64-pc-linux-gnu"

@.str.13 = private unnamed_addr constant [2 x i8] c"\0A\00", align 1
@.str.14 = private unnamed_addr constant [39 x i8] c"    write_firrtl [options] [filename]\0A\00", align 1
@.str.15 = private unnamed_addr constant [47 x i8] c"Write a FIRRTL netlist of the current design.\0A\00", align 1
@.str.16 = private unnamed_addr constant [54 x i8] c"The following commands are executed by this command:\0A\00", align 1
@.str.17 = private unnamed_addr constant [18 x i8] c"        pmuxtree\0A\00", align 1
@.str.18 = private unnamed_addr constant [17 x i8] c"        bmuxmap\0A\00", align 1
@.str.19 = private unnamed_addr constant [18 x i8] c"        demuxmap\0A\00", align 1
@.str.20 = private unnamed_addr constant [18 x i8] c"        bwmuxmap\0A\00", align 1

; Function Attrs: mustprogress uwtable
define internal void @_ZN12_GLOBAL__N_113FirrtlBackend4helpEv(ptr noundef nonnull align 8 dereferenceable(136) %0) unnamed_addr #6 align 2 {
  %2 = alloca ptr, align 8
  store ptr %0, ptr %2, align 8, !tbaa !13
  call void (ptr, ...) @_ZN5Yosys3logEPKcz(ptr noundef @.str.13)
  call void (ptr, ...) @_ZN5Yosys3logEPKcz(ptr noundef @.str.14)
  call void (ptr, ...) @_ZN5Yosys3logEPKcz(ptr noundef @.str.13)
  call void (ptr, ...) @_ZN5Yosys3logEPKcz(ptr noundef @.str.15)
  call void (ptr, ...) @_ZN5Yosys3logEPKcz(ptr noundef @.str.16)
  call void (ptr, ...) @_ZN5Yosys3logEPKcz(ptr noundef @.str.17)
  call void (ptr, ...) @_ZN5Yosys3logEPKcz(ptr noundef @.str.18)
  call void (ptr, ...) @_ZN5Yosys3logEPKcz(ptr noundef @.str.19)
  call void (ptr, ...) @_ZN5Yosys3logEPKcz(ptr noundef @.str.20)
  call void (ptr, ...) @_ZN5Yosys3logEPKcz(ptr noundef @.str.13)
  ret void
}